target datalayout = "e-m:e-p270:32:32-p271:32:32-p272:64:64-i64:64-i128:128-f80:128-n8:16:32:64-S128"
target triple = "x86_64-unknown-linux-gnu"

; Function Attrs: nounwind sspstrong uwtable
define hidden i32 @FLAC__bitwriter_write_utf8_uint64(ptr noundef %bw, i64 noundef %val) #0 {
entry:
  %retval = alloca i32, align 4
  %bw.addr = alloca ptr, align 8
  %val.addr = alloca i64, align 8
  %ok = alloca i32, align 4
  store ptr %bw, ptr %bw.addr, align 8
  store i64 %val, ptr %val.addr, align 8
  store i32 1, ptr %ok, align 4
  %0 = load i64, ptr %val.addr, align 8
  %and = and i64 %0, -68719476736
  %cmp = icmp ne i64 %and, 0
  br i1 %cmp, label %if.then, label %if.end

if.then:                                          ; preds = %entry
  store i32 0, ptr %retval, align 4
  br label %return

if.end:                                           ; preds = %entry
  %1 = load i64, ptr %val.addr, align 8
  %cmp1 = icmp ult i64 %1, 128
  br i1 %cmp1, label %if.then2, label %if.else

if.then2:                                         ; preds = %if.end
  %2 = load ptr, ptr %bw.addr, align 8
  %3 = load i64, ptr %val.addr, align 8
  %conv = trunc i64 %3 to i32
  %call = call i32 @FLAC__bitwriter_write_raw_uint32_nocheck(ptr noundef %2, i32 noundef %conv, i32 noundef 8)
  store i32 %call, ptr %retval, align 4
  br label %return

if.else:                                          ; preds = %if.end
  %4 = load i64, ptr %val.addr, align 8
  %cmp3 = icmp ult i64 %4, 2048
  br i1 %cmp3, label %if.then5, label %if.else14

if.then5:                                         ; preds = %if.else
  %5 = load ptr, ptr %bw.addr, align 8
  %6 = load i64, ptr %val.addr, align 8
  %shr = lshr i64 %6, 6
  %conv6 = trunc i64 %shr to i32
  %or = or i32 192, %conv6
  %call7 = call i32 @FLAC__bitwriter_write_raw_uint32_nocheck(ptr noundef %5, i32 noundef %or, i32 noundef 8)
  %7 = load i32, ptr %ok, align 4
  %and8 = and i32 %7, %call7
  store i32 %and8, ptr %ok, align 4
  %8 = load ptr, ptr %bw.addr, align 8
  %9 = load i64, ptr %val.addr, align 8
  %and9 = and i64 %9, 63
  %conv10 = trunc i64 %and9 to i32
  %or11 = or i32 128, %conv10
  %call12 = call i32 @FLAC__bitwriter_write_raw_uint32_nocheck(ptr noundef %8, i32 noundef %or11, i32 noundef 8)
  %10 = load i32, ptr %ok, align 4
  %and13 = and i32 %10, %call12
  store i32 %and13, ptr %ok, align 4
  br label %if.end172

if.else14:                                        ; preds = %if.else
  %11 = load i64, ptr %val.addr, align 8
  %cmp15 = icmp ult i64 %11, 65536
  br i1 %cmp15, label %if.then17, label %if.else34

if.then17:                                        ; preds = %if.else14
  %12 = load ptr, ptr %bw.addr, align 8
  %13 = load i64, ptr %val.addr, align 8
  %shr18 = lshr i64 %13, 12
  %conv19 = trunc i64 %shr18 to i32
  %or20 = or i32 224, %conv19
  %call21 = call i32 @FLAC__bitwriter_write_raw_uint32_nocheck(ptr noundef %12, i32 noundef %or20, i32 noundef 8)
  %14 = load i32, ptr %ok, align 4
  %and22 = and i32 %14, %call21
  store i32 %and22, ptr %ok, align 4
  %15 = load ptr, ptr %bw.addr, align 8
  %16 = load i64, ptr %val.addr, align 8
  %shr23 = lshr i64 %16, 6
  %and24 = and i64 %shr23, 63
  %conv25 = trunc i64 %and24 to i32
  %or26 = or i32 128, %conv25
  %call27 = call i32 @FLAC__bitwriter_write_raw_uint32_nocheck(ptr noundef %15, i32 noundef %or26, i32 noundef 8)
  %17 = load i32, ptr %ok, align 4
  %and28 = and i32 %17, %call27
  store i32 %and28, ptr %ok, align 4
  %18 = load ptr, ptr %bw.addr, align 8
  %19 = load i64, ptr %val.addr, align 8
  %and29 = and i64 %19, 63
  %conv30 = trunc i64 %and29 to i32
  %or31 = or i32 128, %conv30
  %call32 = call i32 @FLAC__bitwriter_write_raw_uint32_nocheck(ptr noundef %18, i32 noundef %or31, i32 noundef 8)
  %20 = load i32, ptr %ok, align 4
  %and33 = and i32 %20, %call32
  store i32 %and33, ptr %ok, align 4
  br label %if.end171

if.else34:                                        ; preds = %if.else14
  %21 = load i64, ptr %val.addr, align 8
  %cmp35 = icmp ult i64 %21, 2097152
  br i1 %cmp35, label %if.then37, label %if.else60

if.then37:                                        ; preds = %if.else34
  %22 = load ptr, ptr %bw.addr, align 8
  %23 = load i64, ptr %val.addr, align 8
  %shr38 = lshr i64 %23, 18
  %conv39 = trunc i64 %shr38 to i32
  %or40 = or i32 240, %conv39
  %call41 = call i32 @FLAC__bitwriter_write_raw_uint32_nocheck(ptr noundef %22, i32 noundef %or40, i32 noundef 8)
  %24 = load i32, ptr %ok, align 4
  %and42 = and i32 %24, %call41
  store i32 %and42, ptr %ok, align 4
  %25 = load ptr, ptr %bw.addr, align 8
  %26 = load i64, ptr %val.addr, align 8
  %shr43 = lshr i64 %26, 12
  %and44 = and i64 %shr43, 63
  %conv45 = trunc i64 %and44 to i32
  %or46 = or i32 128, %conv45
  %call47 = call i32 @FLAC__bitwriter_write_raw_uint32_nocheck(ptr noundef %25, i32 noundef %or46, i32 noundef 8)
  %27 = load i32, ptr %ok, align 4
  %and48 = and i32 %27, %call47
  store i32 %and48, ptr %ok, align 4
  %28 = load ptr, ptr %bw.addr, align 8
  %29 = load i64, ptr %val.addr, align 8
  %shr49 = lshr i64 %29, 6
  %and50 = and i64 %shr49, 63
  %conv51 = trunc i64 %and50 to i32
  %or52 = or i32 128, %conv51
  %call53 = call i32 @FLAC__bitwriter_write_raw_uint32_nocheck(ptr noundef %28, i32 noundef %or52, i32 noundef 8)
  %30 = load i32, ptr %ok, align 4
  %and54 = and i32 %30, %call53
  store i32 %and54, ptr %ok, align 4
  %31 = load ptr, ptr %bw.addr, align 8
  %32 = load i64, ptr %val.addr, align 8
  %and55 = and i64 %32, 63
  %conv56 = trunc i64 %and55 to i32
  %or57 = or i32 128, %conv56
  %call58 = call i32 @FLAC__bitwriter_write_raw_uint32_nocheck(ptr noundef %31, i32 noundef %or57, i32 noundef 8)
  %33 = load i32, ptr %ok, align 4
  %and59 = and i32 %33, %call58
  store i32 %and59, ptr %ok, align 4
  br label %if.end170

if.else60:                                        ; preds = %if.else34
  %34 = load i64, ptr %val.addr, align 8
  %cmp61 = icmp ult i64 %34, 67108864
  br i1 %cmp61, label %if.then63, label %if.else92

if.then63:                                        ; preds = %if.else60
  %35 = load ptr, ptr %bw.addr, align 8
  %36 = load i64, ptr %val.addr, align 8
  %shr64 = lshr i64 %36, 24
  %conv65 = trunc i64 %shr64 to i32
  %or66 = or i32 248, %conv65
  %call67 = call i32 @FLAC__bitwriter_write_raw_uint32_nocheck(ptr noundef %35, i32 noundef %or66, i32 noundef 8)
  %37 = load i32, ptr %ok, align 4
  %and68 = and i32 %37, %call67
  store i32 %and68, ptr %ok, align 4
  %38 = load ptr, ptr %bw.addr, align 8
  %39 = load i64, ptr %val.addr, align 8
  %shr69 = lshr i64 %39, 18
  %and70 = and i64 %shr69, 63
  %conv71 = trunc i64 %and70 to i32
  %or72 = or i32 128, %conv71
  %call73 = call i32 @FLAC__bitwriter_write_raw_uint32_nocheck(ptr noundef %38, i32 noundef %or72, i32 noundef 8)
  %40 = load i32, ptr %ok, align 4
  %and74 = and i32 %40, %call73
  store i32 %and74, ptr %ok, align 4
  %41 = load ptr, ptr %bw.addr, align 8
  %42 = load i64, ptr %val.addr, align 8
  %shr75 = lshr i64 %42, 12
  %and76 = and i64 %shr75, 63
  %conv77 = trunc i64 %and76 to i32
  %or78 = or i32 128, %conv77
  %call79 = call i32 @FLAC__bitwriter_write_raw_uint32_nocheck(ptr noundef %41, i32 noundef %or78, i32 noundef 8)
  %43 = load i32, ptr %ok, align 4
  %and80 = and i32 %43, %call79
  store i32 %and80, ptr %ok, align 4
  %44 = load ptr, ptr %bw.addr, align 8
  %45 = load i64, ptr %val.addr, align 8
  %shr81 = lshr i64 %45, 6
  %and82 = and i64 %shr81, 63
  %conv83 = trunc i64 %and82 to i32
  %or84 = or i32 128, %conv83
  %call85 = call i32 @FLAC__bitwriter_write_raw_uint32_nocheck(ptr noundef %44, i32 noundef %or84, i32 noundef 8)
  %46 = load i32, ptr %ok, align 4
  %and86 = and i32 %46, %call85
  store i32 %and86, ptr %ok, align 4
  %47 = load ptr, ptr %bw.addr, align 8
  %48 = load i64, ptr %val.addr, align 8
  %and87 = and i64 %48, 63
  %conv88 = trunc i64 %and87 to i32
  %or89 = or i32 128, %conv88
  %call90 = call i32 @FLAC__bitwriter_write_raw_uint32_nocheck(ptr noundef %47, i32 noundef %or89, i32 noundef 8)
  %49 = load i32, ptr %ok, align 4
  %and91 = and i32 %49, %call90
  store i32 %and91, ptr %ok, align 4
  br label %if.end169

if.else92:                                        ; preds = %if.else60
  %50 = load i64, ptr %val.addr, align 8
  %cmp93 = icmp ult i64 %50, 2147483648
  br i1 %cmp93, label %if.then95, label %if.else130

if.then95:                                        ; preds = %if.else92
  %51 = load ptr, ptr %bw.addr, align 8
  %52 = load i64, ptr %val.addr, align 8
  %shr96 = lshr i64 %52, 30
  %conv97 = trunc i64 %shr96 to i32
  %or98 = or i32 252, %conv97
  %call99 = call i32 @FLAC__bitwriter_write_raw_uint32_nocheck(ptr noundef %51, i32 noundef %or98, i32 noundef 8)
  %53 = load i32, ptr %ok, align 4
  %and100 = and i32 %53, %call99
  store i32 %and100, ptr %ok, align 4
  %54 = load ptr, ptr %bw.addr, align 8
  %55 = load i64, ptr %val.addr, align 8
  %shr101 = lshr i64 %55, 24
  %and102 = and i64 %shr101, 63
  %conv103 = trunc i64 %and102 to i32
  %or104 = or i32 128, %conv103
  %call105 = call i32 @FLAC__bitwriter_write_raw_uint32_nocheck(ptr noundef %54, i32 noundef %or104, i32 noundef 8)
  %56 = load i32, ptr %ok, align 4
  %and106 = and i32 %56, %call105
  store i32 %and106, ptr %ok, align 4
  %57 = load ptr, ptr %bw.addr, align 8
  %58 = load i64, ptr %val.addr, align 8
  %shr107 = lshr i64 %58, 18
  %and108 = and i64 %shr107, 63
  %conv109 = trunc i64 %and108 to i32
  %or110 = or i32 128, %conv109
  %call111 = call i32 @FLAC__bitwriter_write_raw_uint32_nocheck(ptr noundef %57, i32 noundef %or110, i32 noundef 8)
  %59 = load i32, ptr %ok, align 4
  %and112 = and i32 %59, %call111
  store i32 %and112, ptr %ok, align 4
  %60 = load ptr, ptr %bw.addr, align 8
  %61 = load i64, ptr %val.addr, align 8
  %shr113 = lshr i64 %61, 12
  %and114 = and i64 %shr113, 63
  %conv115 = trunc i64 %and114 to i32
  %or116 = or i32 128, %conv115
  %call117 = call i32 @FLAC__bitwriter_write_raw_uint32_nocheck(ptr noundef %60, i32 noundef %or116, i32 noundef 8)
  %62 = load i32, ptr %ok, align 4
  %and118 = and i32 %62, %call117
  store i32 %and118, ptr %ok, align 4
  %63 = load ptr, ptr %bw.addr, align 8
  %64 = load i64, ptr %val.addr, align 8
  %shr119 = lshr i64 %64, 6
  %and120 = and i64 %shr119, 63
  %conv121 = trunc i64 %and120 to i32
  %or122 = or i32 128, %conv121
  %call123 = call i32 @FLAC__bitwriter_write_raw_uint32_nocheck(ptr noundef %63, i32 noundef %or122, i32 noundef 8)
  %65 = load i32, ptr %ok, align 4
  %and124 = and i32 %65, %call123
  store i32 %and124, ptr %ok, align 4
  %66 = load ptr, ptr %bw.addr, align 8
  %67 = load i64, ptr %val.addr, align 8
  %and125 = and i64 %67, 63
  %conv126 = trunc i64 %and125 to i32
  %or127 = or i32 128, %conv126
  %call128 = call i32 @FLAC__bitwriter_write_raw_uint32_nocheck(ptr noundef %66, i32 noundef %or127, i32 noundef 8)
  %68 = load i32, ptr %ok, align 4
  %and129 = and i32 %68, %call128
  store i32 %and129, ptr %ok, align 4
  br label %if.end168

if.else130:                                       ; preds = %if.else92
  %69 = load ptr, ptr %bw.addr, align 8
  %call131 = call i32 @FLAC__bitwriter_write_raw_uint32_nocheck(ptr noundef %69, i32 noundef 254, i32 noundef 8)
  %70 = load i32, ptr %ok, align 4
  %and132 = and i32 %70, %call131
  store i32 %and132, ptr %ok, align 4
  %71 = load ptr, ptr %bw.addr, align 8
  %72 = load i64, ptr %val.addr, align 8
  %shr133 = lshr i64 %72, 30
  %and134 = and i64 %shr133, 63
  %conv135 = trunc i64 %and134 to i32
  %or136 = or i32 128, %conv135
  %call137 = call i32 @FLAC__bitwriter_write_raw_uint32_nocheck(ptr noundef %71, i32 noundef %or136, i32 noundef 8)
  %73 = load i32, ptr %ok, align 4
  %and138 = and i32 %73, %call137
  store i32 %and138, ptr %ok, align 4
  %74 = load ptr, ptr %bw.addr, align 8
  %75 = load i64, ptr %val.addr, align 8
  %shr139 = lshr i64 %75, 24
  %and140 = and i64 %shr139, 63
  %conv141 = trunc i64 %and140 to i32
  %or142 = or i32 128, %conv141
  %call143 = call i32 @FLAC__bitwriter_write_raw_uint32_nocheck(ptr noundef %74, i32 noundef %or142, i32 noundef 8)
  %76 = load i32, ptr %ok, align 4
  %and144 = and i32 %76, %call143
  store i32 %and144, ptr %ok, align 4
  %77 = load ptr, ptr %bw.addr, align 8
  %78 = load i64, ptr %val.addr, align 8
  %shr145 = lshr i64 %78, 18
  %and146 = and i64 %shr145, 63
  %conv147 = trunc i64 %and146 to i32
  %or148 = or i32 128, %conv147
  %call149 = call i32 @FLAC__bitwriter_write_raw_uint32_nocheck(ptr noundef %77, i32 noundef %or148, i32 noundef 8)
  %79 = load i32, ptr %ok, align 4
  %and150 = and i32 %79, %call149
  store i32 %and150, ptr %ok, align 4
  %80 = load ptr, ptr %bw.addr, align 8
  %81 = load i64, ptr %val.addr, align 8
  %shr151 = lshr i64 %81, 12
  %and152 = and i64 %shr151, 63
  %conv153 = trunc i64 %and152 to i32
  %or154 = or i32 128, %conv153
  %call155 = call i32 @FLAC__bitwriter_write_raw_uint32_nocheck(ptr noundef %80, i32 noundef %or154, i32 noundef 8)
  %82 = load i32, ptr %ok, align 4
  %and156 = and i32 %82, %call155
  store i32 %and156, ptr %ok, align 4
  %83 = load ptr, ptr %bw.addr, align 8
  %84 = load i64, ptr %val.addr, align 8
  %shr157 = lshr i64 %84, 6
  %and158 = and i64 %shr157, 63
  %conv159 = trunc i64 %and158 to i32
  %or160 = or i32 128, %conv159
  %call161 = call i32 @FLAC__bitwriter_write_raw_uint32_nocheck(ptr noundef %83, i32 noundef %or160, i32 noundef 8)
  %85 = load i32, ptr %ok, align 4
  %and162 = and i32 %85, %call161
  store i32 %and162, ptr %ok, align 4
  %86 = load ptr, ptr %bw.addr, align 8
  %87 = load i64, ptr %val.addr, align 8
  %and163 = and i64 %87, 63
  %conv164 = trunc i64 %and163 to i32
  %or165 = or i32 128, %conv164
  %call166 = call i32 @FLAC__bitwriter_write_raw_uint32_nocheck(ptr noundef %86, i32 noundef %or165, i32 noundef 8)
  %88 = load i32, ptr %ok, align 4
  %and167 = and i32 %88, %call166
  store i32 %and167, ptr %ok, align 4
  br label %if.end168

if.end168:                                        ; preds = %if.else130, %if.then95
  br label %if.end169

if.end169:                                        ; preds = %if.end168, %if.then63
  br label %if.end170

if.end170:                                        ; preds = %if.end169, %if.then37
  br label %if.end171

if.end171:                                        ; preds = %if.end170, %if.then17
  br label %if.end172

if.end172:                                        ; preds = %if.end171, %if.then5
  br label %if.end173

if.end173:                                        ; preds = %if.end172
  %89 = load i32, ptr %ok, align 4
  store i32 %89, ptr %retval, align 4
  br label %return

return:                                           ; preds = %if.end173, %if.then2, %if.then
  %90 = load i32, ptr %retval, align 4
  ret i32 %90
}