; Function Attrs: mustprogress nounwind sspstrong willreturn uwtable
define hidden range(i32 0, 2) i32 @FLAC__bitwriter_write_utf8_uint64(ptr noundef %bw, i64 noundef %val) local_unnamed_addr #2 {
entry:
  %cmp.not = icmp ult i64 %val, 68719476736
  br i1 %cmp.not, label %if.end, label %return

if.end:                                           ; preds = %entry
  %cmp1 = icmp samesign ult i64 %val, 128
  br i1 %cmp1, label %if.then2, label %if.else

if.then2:                                         ; preds = %if.end
  %conv = trunc nuw nsw i64 %val to i32
  %call = tail call fastcc i32 @FLAC__bitwriter_write_raw_uint32_nocheck(ptr noundef %bw, i32 noundef %conv, i32 noundef 8)
  br label %return

if.else:                                          ; preds = %if.end
  %cmp3 = icmp samesign ult i64 %val, 2048
  br i1 %cmp3, label %if.then5, label %if.else14

if.then5:                                         ; preds = %if.else
  %shr = lshr i64 %val, 6
  %conv6 = trunc nuw nsw i64 %shr to i32
  %or = or disjoint i32 %conv6, 192
  %call7 = tail call fastcc i32 @FLAC__bitwriter_write_raw_uint32_nocheck(ptr noundef %bw, i32 noundef %or, i32 noundef 8)
  %0 = trunc nuw i64 %val to i32
  %conv10 = and i32 %0, 63
  %or11 = or disjoint i32 %conv10, 128
  %call12 = tail call fastcc i32 @FLAC__bitwriter_write_raw_uint32_nocheck(ptr noundef %bw, i32 noundef %or11, i32 noundef 8)
  %and13 = and i32 %call12, %call7
  br label %return

if.else14:                                        ; preds = %if.else
  %cmp15 = icmp samesign ult i64 %val, 65536
  br i1 %cmp15, label %if.then17, label %if.else34

if.then17:                                        ; preds = %if.else14
  %shr18 = lshr i64 %val, 12
  %conv19 = trunc nuw nsw i64 %shr18 to i32
  %or20 = or disjoint i32 %conv19, 224
  %call21 = tail call fastcc i32 @FLAC__bitwriter_write_raw_uint32_nocheck(ptr noundef %bw, i32 noundef %or20, i32 noundef 8)
  %1 = trunc nuw i64 %val to i32
  %2 = lshr i32 %1, 6
  %conv25 = and i32 %2, 63
  %or26 = or disjoint i32 %conv25, 128
  %call27 = tail call fastcc i32 @FLAC__bitwriter_write_raw_uint32_nocheck(ptr noundef %bw, i32 noundef %or26, i32 noundef 8)
  %and28 = and i32 %call27, %call21
  %conv30 = and i32 %1, 63
  %or31 = or disjoint i32 %conv30, 128
  %call32 = tail call fastcc i32 @FLAC__bitwriter_write_raw_uint32_nocheck(ptr noundef %bw, i32 noundef %or31, i32 noundef 8)
  %and33 = and i32 %and28, %call32
  br label %return

if.else34:                                        ; preds = %if.else14
  %cmp35 = icmp samesign ult i64 %val, 2097152
  br i1 %cmp35, label %if.then37, label %if.else60

if.then37:                                        ; preds = %if.else34
  %shr38 = lshr i64 %val, 18
  %conv39 = trunc nuw nsw i64 %shr38 to i32
  %or40 = or disjoint i32 %conv39, 240
  %call41 = tail call fastcc i32 @FLAC__bitwriter_write_raw_uint32_nocheck(ptr noundef %bw, i32 noundef %or40, i32 noundef 8)
  %3 = trunc nuw i64 %val to i32
  %4 = lshr i32 %3, 12
  %conv45 = and i32 %4, 63
  %or46 = or disjoint i32 %conv45, 128
  %call47 = tail call fastcc i32 @FLAC__bitwriter_write_raw_uint32_nocheck(ptr noundef %bw, i32 noundef %or46, i32 noundef 8)
  %and48 = and i32 %call47, %call41
  %5 = lshr i32 %3, 6
  %conv51 = and i32 %5, 63
  %or52 = or disjoint i32 %conv51, 128
  %call53 = tail call fastcc i32 @FLAC__bitwriter_write_raw_uint32_nocheck(ptr noundef %bw, i32 noundef %or52, i32 noundef 8)
  %and54 = and i32 %and48, %call53
  %conv56 = and i32 %3, 63
  %or57 = or disjoint i32 %conv56, 128
  %call58 = tail call fastcc i32 @FLAC__bitwriter_write_raw_uint32_nocheck(ptr noundef %bw, i32 noundef %or57, i32 noundef 8)
  %and59 = and i32 %and54, %call58
  br label %return

if.else60:                                        ; preds = %if.else34
  %cmp61 = icmp samesign ult i64 %val, 67108864
  br i1 %cmp61, label %if.then63, label %if.else92

if.then63:                                        ; preds = %if.else60
  %shr64 = lshr i64 %val, 24
  %conv65 = trunc nuw nsw i64 %shr64 to i32
  %or66 = or disjoint i32 %conv65, 248
  %call67 = tail call fastcc i32 @FLAC__bitwriter_write_raw_uint32_nocheck(ptr noundef %bw, i32 noundef %or66, i32 noundef 8)
  %6 = trunc nuw i64 %val to i32
  %7 = lshr i32 %6, 18
  %conv71 = and i32 %7, 63
  %or72 = or disjoint i32 %conv71, 128
  %call73 = tail call fastcc i32 @FLAC__bitwriter_write_raw_uint32_nocheck(ptr noundef %bw, i32 noundef %or72, i32 noundef 8)
  %and74 = and i32 %call73, %call67
  %8 = lshr i32 %6, 12
  %conv77 = and i32 %8, 63
  %or78 = or disjoint i32 %conv77, 128
  %call79 = tail call fastcc i32 @FLAC__bitwriter_write_raw_uint32_nocheck(ptr noundef %bw, i32 noundef %or78, i32 noundef 8)
  %and80 = and i32 %and74, %call79
  %9 = lshr i32 %6, 6
  %conv83 = and i32 %9, 63
  %or84 = or disjoint i32 %conv83, 128
  %call85 = tail call fastcc i32 @FLAC__bitwriter_write_raw_uint32_nocheck(ptr noundef %bw, i32 noundef %or84, i32 noundef 8)
  %and86 = and i32 %and80, %call85
  %conv88 = and i32 %6, 63
  %or89 = or disjoint i32 %conv88, 128
  %call90 = tail call fastcc i32 @FLAC__bitwriter_write_raw_uint32_nocheck(ptr noundef %bw, i32 noundef %or89, i32 noundef 8)
  %and91 = and i32 %and86, %call90
  br label %return

if.else92:                                        ; preds = %if.else60
  %cmp93 = icmp samesign ult i64 %val, 2147483648
  br i1 %cmp93, label %if.then95, label %if.else130

if.then95:                                        ; preds = %if.else92
  %shr96 = lshr i64 %val, 30
  %conv97 = trunc nuw nsw i64 %shr96 to i32
  %or98 = or disjoint i32 %conv97, 252
  %call99 = tail call fastcc i32 @FLAC__bitwriter_write_raw_uint32_nocheck(ptr noundef %bw, i32 noundef %or98, i32 noundef 8)
  %10 = trunc nuw i64 %val to i32
  %11 = lshr i32 %10, 24
  %conv103 = and i32 %11, 63
  %or104 = or disjoint i32 %conv103, 128
  %call105 = tail call fastcc i32 @FLAC__bitwriter_write_raw_uint32_nocheck(ptr noundef %bw, i32 noundef %or104, i32 noundef 8)
  %and106 = and i32 %call105, %call99
  %12 = lshr i32 %10, 18
  %conv109 = and i32 %12, 63
  %or110 = or disjoint i32 %conv109, 128
  %call111 = tail call fastcc i32 @FLAC__bitwriter_write_raw_uint32_nocheck(ptr noundef %bw, i32 noundef %or110, i32 noundef 8)
  %and112 = and i32 %and106, %call111
  %13 = lshr i32 %10, 12
  %conv115 = and i32 %13, 63
  %or116 = or disjoint i32 %conv115, 128
  %call117 = tail call fastcc i32 @FLAC__bitwriter_write_raw_uint32_nocheck(ptr noundef %bw, i32 noundef %or116, i32 noundef 8)
  %and118 = and i32 %and112, %call117
  %14 = lshr i32 %10, 6
  %conv121 = and i32 %14, 63
  %or122 = or disjoint i32 %conv121, 128
  %call123 = tail call fastcc i32 @FLAC__bitwriter_write_raw_uint32_nocheck(ptr noundef %bw, i32 noundef %or122, i32 noundef 8)
  %and124 = and i32 %and118, %call123
  %conv126 = and i32 %10, 63
  %or127 = or disjoint i32 %conv126, 128
  %call128 = tail call fastcc i32 @FLAC__bitwriter_write_raw_uint32_nocheck(ptr noundef %bw, i32 noundef %or127, i32 noundef 8)
  %and129 = and i32 %and124, %call128
  br label %return

if.else130:                                       ; preds = %if.else92
  %call131 = tail call fastcc i32 @FLAC__bitwriter_write_raw_uint32_nocheck(ptr noundef %bw, i32 noundef 254, i32 noundef 8)
  %shr133 = lshr i64 %val, 30
  %conv135 = trunc nuw nsw i64 %shr133 to i32
  %or136 = or disjoint i32 %conv135, 128
  %call137 = tail call fastcc i32 @FLAC__bitwriter_write_raw_uint32_nocheck(ptr noundef %bw, i32 noundef %or136, i32 noundef 8)
  %and138 = and i32 %call137, %call131
  %15 = trunc i64 %val to i32
  %16 = lshr i32 %15, 24
  %conv141 = and i32 %16, 63
  %or142 = or disjoint i32 %conv141, 128
  %call143 = tail call fastcc i32 @FLAC__bitwriter_write_raw_uint32_nocheck(ptr noundef %bw, i32 noundef %or142, i32 noundef 8)
  %and144 = and i32 %and138, %call143
  %17 = lshr i32 %15, 18
  %conv147 = and i32 %17, 63
  %or148 = or disjoint i32 %conv147, 128
  %call149 = tail call fastcc i32 @FLAC__bitwriter_write_raw_uint32_nocheck(ptr noundef %bw, i32 noundef %or148, i32 noundef 8)
  %and150 = and i32 %and144, %call149
  %18 = lshr i32 %15, 12
  %conv153 = and i32 %18, 63
  %or154 = or disjoint i32 %conv153, 128
  %call155 = tail call fastcc i32 @FLAC__bitwriter_write_raw_uint32_nocheck(ptr noundef %bw, i32 noundef %or154, i32 noundef 8)
  %and156 = and i32 %and150, %call155
  %19 = lshr i32 %15, 6
  %conv159 = and i32 %19, 63
  %or160 = or disjoint i32 %conv159, 128
  %call161 = tail call fastcc i32 @FLAC__bitwriter_write_raw_uint32_nocheck(ptr noundef %bw, i32 noundef %or160, i32 noundef 8)
  %and162 = and i32 %and156, %call161
  %conv164 = and i32 %15, 63
  %or165 = or disjoint i32 %conv164, 128
  %call166 = tail call fastcc i32 @FLAC__bitwriter_write_raw_uint32_nocheck(ptr noundef %bw, i32 noundef %or165, i32 noundef 8)
  %and167 = and i32 %and162, %call166
  br label %return

return:                                           ; preds = %if.then17, %if.then63, %if.else130, %if.then95, %if.then37, %if.then5, %entry, %if.then2
  %retval.0 = phi i32 [ %call, %if.then2 ], [ 0, %entry ], [ %and13, %if.then5 ], [ %and33, %if.then17 ], [ %and59, %if.then37 ], [ %and91, %if.then63 ], [ %and129, %if.then95 ], [ %and167, %if.else130 ]
  ret i32 %retval.0
}